target datalayout = "e-m:e-p270:32:32-p271:32:32-p272:64:64-i64:64-i128:128-f80:128-n8:16:32:64-S128"
target triple = "x86_64-pc-linux-gnu"

%struct._object = type { %union.anon, ptr }
%union.anon = type { i64 }
%struct._err_stackitem = type { ptr, ptr }
%union._PyStackRef = type { i64 }
%struct._PyGenObject = type { %struct._object, ptr, ptr, ptr, %struct._err_stackitem, ptr, i8, i8, i8, i8, %struct._PyInterpreterFrame }
%struct._PyInterpreterFrame = type { %union._PyStackRef, ptr, %union._PyStackRef, ptr, ptr, ptr, ptr, ptr, ptr, i16, i8, i8, [1 x %union._PyStackRef] }
%struct.anon = type { i32, i32 }
%struct.anon.1 = type { i8, i8 }

@_Py_NoneStruct = external global %struct._object, align 8
@PyExc_GeneratorExit = external global ptr, align 8
@.str.13 = private unnamed_addr constant [32 x i8] c"generator ignored GeneratorExit\00", align 1
@.str.14 = private unnamed_addr constant [32 x i8] c"coroutine ignored GeneratorExit\00", align 1
@ASYNC_GEN_IGNORED_EXIT_MSG = internal global ptr @.str.22, align 8
@PyExc_RuntimeError = external global ptr, align 8

; Function Attrs: alwaysinline nounwind uwtable
define internal void @Py_INCREF(ptr noundef %0) #3 {
  %2 = alloca ptr, align 8
  %3 = alloca i32, align 4
  %4 = alloca i32, align 4
  store ptr %0, ptr %2, align 8, !tbaa !11
  call void @llvm.lifetime.start.p0(i64 4, ptr %3) #7
  %5 = load ptr, ptr %2, align 8, !tbaa !11
  %6 = getelementptr inbounds nuw %struct._object, ptr %5, i32 0, i32 0
  %7 = getelementptr inbounds nuw %struct.anon, ptr %6, i32 0, i32 0
  %8 = load i32, ptr %7, align 8, !tbaa !13
  store i32 %8, ptr %3, align 4, !tbaa !14
  %9 = load i32, ptr %3, align 4, !tbaa !14
  %10 = icmp slt i32 %9, 0
  br i1 %10, label %11, label %12

11:                                               ; preds = %1
  store i32 1, ptr %4, align 4
  br label %18

12:                                               ; preds = %1
  %13 = load i32, ptr %3, align 4, !tbaa !14
  %14 = add i32 %13, 1
  %15 = load ptr, ptr %2, align 8, !tbaa !11
  %16 = getelementptr inbounds nuw %struct._object, ptr %15, i32 0, i32 0
  %17 = getelementptr inbounds nuw %struct.anon, ptr %16, i32 0, i32 0
  store i32 %14, ptr %17, align 8, !tbaa !13
  store i32 0, ptr %4, align 4
  br label %18

18:                                               ; preds = %12, %11
  call void @llvm.lifetime.end.p0(i64 4, ptr %3) #7
  %19 = load i32, ptr %4, align 4
  switch i32 %19, label %21 [
    i32 0, label %20
    i32 1, label %20
  ]

20:                                               ; preds = %18, %18
  ret void

21:                                               ; preds = %18
  unreachable
}

; Function Attrs: inlinehint nounwind uwtable
define internal ptr @_Py_TYPE(ptr noundef %0) #2 {
  %2 = alloca ptr, align 8
  store ptr %0, ptr %2, align 8, !tbaa !11
  %3 = load ptr, ptr %2, align 8, !tbaa !11
  %4 = getelementptr inbounds nuw %struct._object, ptr %3, i32 0, i32 1
  %5 = load ptr, ptr %4, align 8, !tbaa !92
  ret ptr %5
}

; Function Attrs: inlinehint nounwind uwtable
define internal void @_PyErr_ClearExcState(ptr noundef %0) #2 {
  %2 = alloca ptr, align 8
  %3 = alloca ptr, align 8
  %4 = alloca ptr, align 8
  store ptr %0, ptr %2, align 8, !tbaa !197
  br label %5

5:                                                ; preds = %1
  call void @llvm.lifetime.start.p0(i64 8, ptr %3) #7
  %6 = load ptr, ptr %2, align 8, !tbaa !197
  %7 = getelementptr inbounds nuw %struct._err_stackitem, ptr %6, i32 0, i32 0
  store ptr %7, ptr %3, align 8, !tbaa !43
  call void @llvm.lifetime.start.p0(i64 8, ptr %4) #7
  %8 = load ptr, ptr %3, align 8, !tbaa !43
  %9 = load ptr, ptr %8, align 8, !tbaa !11
  store ptr %9, ptr %4, align 8, !tbaa !11
  %10 = load ptr, ptr %4, align 8, !tbaa !11
  %11 = icmp ne ptr %10, null
  br i1 %11, label %12, label %15

12:                                               ; preds = %5
  %13 = load ptr, ptr %3, align 8, !tbaa !43
  store ptr null, ptr %13, align 8, !tbaa !11
  %14 = load ptr, ptr %4, align 8, !tbaa !11
  call void @Py_DECREF(ptr noundef %14)
  br label %15

15:                                               ; preds = %12, %5
  call void @llvm.lifetime.end.p0(i64 8, ptr %4) #7
  call void @llvm.lifetime.end.p0(i64 8, ptr %3) #7
  br label %16

16:                                               ; preds = %15
  ret void
}

; Function Attrs: alwaysinline nounwind uwtable
define internal i32 @_Py_IsImmortal(ptr noundef %0) #3 {
  %2 = alloca ptr, align 8
  store ptr %0, ptr %2, align 8, !tbaa !11
  %3 = load ptr, ptr %2, align 8, !tbaa !11
  %4 = getelementptr inbounds nuw %struct._object, ptr %3, i32 0, i32 0
  %5 = getelementptr inbounds nuw %struct.anon, ptr %4, i32 0, i32 0
  %6 = load i32, ptr %5, align 8, !tbaa !13
  %7 = icmp slt i32 %6, 0
  %8 = zext i1 %7 to i32
  ret i32 %8
}

; Function Attrs: inlinehint nounwind uwtable
define internal ptr @_Py_NewRef(ptr noundef %0) #2 {
  %2 = alloca ptr, align 8
  store ptr %0, ptr %2, align 8, !tbaa !11
  %3 = load ptr, ptr %2, align 8, !tbaa !11
  call void @Py_INCREF(ptr noundef %3)
  %4 = load ptr, ptr %2, align 8, !tbaa !11
  ret ptr %4
}

; Function Attrs: inlinehint nounwind uwtable
define internal i64 @_PyFrame_StackPeek(ptr noundef %0) #2 {
  %2 = alloca %union._PyStackRef, align 8
  %3 = alloca ptr, align 8
  store ptr %0, ptr %3, align 8, !tbaa !37
  %4 = load ptr, ptr %3, align 8, !tbaa !37
  %5 = getelementptr inbounds nuw %struct._PyInterpreterFrame, ptr %4, i32 0, i32 8
  %6 = load ptr, ptr %5, align 8, !tbaa !41
  %7 = getelementptr %union._PyStackRef, ptr %6, i64 -1
  call void @llvm.memcpy.p0.p0.i64(ptr align 8 %2, ptr align 8 %7, i64 8, i1 false), !tbaa.struct !42
  %8 = getelementptr inbounds nuw %union._PyStackRef, ptr %2, i32 0, i32 0
  %9 = load i64, ptr %8, align 8
  ret i64 %9
}

; Function Attrs: inlinehint nounwind uwtable
define internal i32 @Py_IS_TYPE(ptr noundef %0, ptr noundef %1) #2 {
  %3 = alloca ptr, align 8
  %4 = alloca ptr, align 8
  store ptr %0, ptr %3, align 8, !tbaa !11
  store ptr %1, ptr %4, align 8, !tbaa !36
  %5 = load ptr, ptr %3, align 8, !tbaa !11
  %6 = call ptr @_Py_TYPE(ptr noundef %5)
  %7 = load ptr, ptr %4, align 8, !tbaa !36
  %8 = icmp eq ptr %6, %7
  %9 = zext i1 %8 to i32
  ret i32 %9
}

; Function Attrs: nounwind uwtable
define internal void @gen_clear_frame(ptr noundef %0) #0 {
  %2 = alloca ptr, align 8
  %3 = alloca ptr, align 8
  store ptr %0, ptr %2, align 8, !tbaa !4
  %4 = load ptr, ptr %2, align 8, !tbaa !4
  %5 = getelementptr inbounds nuw %struct._PyGenObject, ptr %4, i32 0, i32 9
  %6 = load i8, ptr %5, align 1, !tbaa !16
  %7 = sext i8 %6 to i32
  %8 = icmp eq i32 %7, 4
  br i1 %8, label %9, label %10

9:                                                ; preds = %1
  br label %20

10:                                               ; preds = %1
  %11 = load ptr, ptr %2, align 8, !tbaa !4
  %12 = getelementptr inbounds nuw %struct._PyGenObject, ptr %11, i32 0, i32 9
  store i8 4, ptr %12, align 1, !tbaa !16
  call void @llvm.lifetime.start.p0(i64 8, ptr %3) #7
  %13 = load ptr, ptr %2, align 8, !tbaa !4
  %14 = getelementptr inbounds nuw %struct._PyGenObject, ptr %13, i32 0, i32 10
  store ptr %14, ptr %3, align 8, !tbaa !37
  %15 = load ptr, ptr %3, align 8, !tbaa !37
  %16 = getelementptr inbounds nuw %struct._PyInterpreterFrame, ptr %15, i32 0, i32 1
  store ptr null, ptr %16, align 8, !tbaa !67
  %17 = load ptr, ptr %3, align 8, !tbaa !37
  call void @_PyFrame_ClearExceptCode(ptr noundef %17)
  %18 = load ptr, ptr %2, align 8, !tbaa !4
  %19 = getelementptr inbounds nuw %struct._PyGenObject, ptr %18, i32 0, i32 4
  call void @_PyErr_ClearExcState(ptr noundef %19)
  call void @llvm.lifetime.end.p0(i64 8, ptr %3) #7
  br label %20

20:                                               ; preds = %10, %9
  ret void
}

; Function Attrs: inlinehint nounwind uwtable
define internal zeroext i1 @is_resume(ptr noundef %0) #2 {
  %2 = alloca ptr, align 8
  %3 = alloca i8, align 1
  store ptr %0, ptr %2, align 8, !tbaa !50
  call void @llvm.lifetime.start.p0(i64 1, ptr %3) #7
  %4 = load ptr, ptr %2, align 8, !tbaa !50
  %5 = getelementptr inbounds nuw %struct.anon.1, ptr %4, i32 0, i32 0
  %6 = load i8, ptr %5, align 2, !tbaa !13
  store i8 %6, ptr %3, align 1, !tbaa !13
  %7 = load i8, ptr %3, align 1, !tbaa !13
  %8 = zext i8 %7 to i32
  %9 = icmp eq i32 %8, 149
  br i1 %9, label %18, label %10

10:                                               ; preds = %1
  %11 = load i8, ptr %3, align 1, !tbaa !13
  %12 = zext i8 %11 to i32
  %13 = icmp eq i32 %12, 216
  br i1 %13, label %18, label %14

14:                                               ; preds = %10
  %15 = load i8, ptr %3, align 1, !tbaa !13
  %16 = zext i8 %15 to i32
  %17 = icmp eq i32 %16, 246
  br label %18

18:                                               ; preds = %14, %10, %1
  %19 = phi i1 [ true, %10 ], [ true, %1 ], [ %17, %14 ]
  call void @llvm.lifetime.end.p0(i64 1, ptr %3) #7
  ret i1 %19
}

; Function Attrs: alwaysinline nounwind uwtable
define internal void @Py_DECREF(ptr noundef %0) #3 {
  %2 = alloca ptr, align 8
  store ptr %0, ptr %2, align 8, !tbaa !11
  %3 = load ptr, ptr %2, align 8, !tbaa !11
  %4 = call i32 @_Py_IsImmortal(ptr noundef %3)
  %5 = icmp ne i32 %4, 0
  br i1 %5, label %6, label %7

6:                                                ; preds = %1
  br label %16

7:                                                ; preds = %1
  %8 = load ptr, ptr %2, align 8, !tbaa !11
  %9 = getelementptr inbounds nuw %struct._object, ptr %8, i32 0, i32 0
  %10 = getelementptr inbounds nuw %struct.anon, ptr %9, i32 0, i32 0
  %11 = load i32, ptr %10, align 8, !tbaa !13
  %12 = add i32 %11, -1
  store i32 %12, ptr %10, align 8, !tbaa !13
  %13 = icmp eq i32 %12, 0
  br i1 %13, label %14, label %16

14:                                               ; preds = %7
  %15 = load ptr, ptr %2, align 8, !tbaa !11
  call void @_Py_Dealloc(ptr noundef %15)
  br label %16

16:                                               ; preds = %6, %14, %7
  ret void
}

; Function Attrs: nounwind uwtable
define dso_local ptr @_PyGen_yf(ptr noundef %0) #0 {
  %2 = alloca ptr, align 8
  %3 = alloca ptr, align 8
  %4 = alloca ptr, align 8
  %5 = alloca %union._PyStackRef, align 8
  store ptr %0, ptr %3, align 8, !tbaa !4
  %6 = load ptr, ptr %3, align 8, !tbaa !4
  %7 = getelementptr inbounds nuw %struct._PyGenObject, ptr %6, i32 0, i32 9
  %8 = load i8, ptr %7, align 1, !tbaa !16
  %9 = sext i8 %8 to i32
  %10 = icmp eq i32 %9, -1
  br i1 %10, label %11, label %20

11:                                               ; preds = %1
  call void @llvm.lifetime.start.p0(i64 8, ptr %4) #7
  %12 = load ptr, ptr %3, align 8, !tbaa !4
  %13 = getelementptr inbounds nuw %struct._PyGenObject, ptr %12, i32 0, i32 10
  store ptr %13, ptr %4, align 8, !tbaa !37
  %14 = load ptr, ptr %4, align 8, !tbaa !37
  %15 = call i64 @_PyFrame_StackPeek(ptr noundef %14)
  %16 = getelementptr inbounds nuw %union._PyStackRef, ptr %5, i32 0, i32 0
  store i64 %15, ptr %16, align 8
  %17 = load i64, ptr %5, align 8, !tbaa !13
  %18 = inttoptr i64 %17 to ptr
  %19 = call ptr @_Py_NewRef(ptr noundef %18)
  store ptr %19, ptr %2, align 8
  call void @llvm.lifetime.end.p0(i64 8, ptr %4) #7
  br label %21

20:                                               ; preds = %1
  store ptr null, ptr %2, align 8
  br label %21

21:                                               ; preds = %20, %11
  %22 = load ptr, ptr %2, align 8
  ret ptr %22
}

; Function Attrs: nounwind uwtable
define internal ptr @gen_close(ptr noundef %0, ptr noundef %1) #0 {
  %3 = alloca ptr, align 8
  %4 = alloca ptr, align 8
  %5 = alloca ptr, align 8
  %6 = alloca ptr, align 8
  %7 = alloca i32, align 4
  %8 = alloca ptr, align 8
  %9 = alloca i32, align 4
  %10 = alloca i32, align 4
  %11 = alloca ptr, align 8
  %12 = alloca i32, align 4
  %13 = alloca ptr, align 8
  %14 = alloca ptr, align 8
  store ptr %0, ptr %4, align 8, !tbaa !11
  store ptr %1, ptr %5, align 8, !tbaa !11
  call void @llvm.lifetime.start.p0(i64 8, ptr %6) #7
  %15 = load ptr, ptr %4, align 8, !tbaa !11
  store ptr %15, ptr %6, align 8, !tbaa !4
  %16 = load ptr, ptr %6, align 8, !tbaa !4
  %17 = getelementptr inbounds nuw %struct._PyGenObject, ptr %16, i32 0, i32 9
  %18 = load i8, ptr %17, align 1, !tbaa !16
  %19 = sext i8 %18 to i32
  %20 = icmp eq i32 %19, -3
  br i1 %20, label %21, label %24

21:                                               ; preds = %2
  %22 = load ptr, ptr %6, align 8, !tbaa !4
  %23 = getelementptr inbounds nuw %struct._PyGenObject, ptr %22, i32 0, i32 9
  store i8 1, ptr %23, align 1, !tbaa !16
  store ptr @_Py_NoneStruct, ptr %3, align 8
  store i32 1, ptr %7, align 4
  br label %114

24:                                               ; preds = %2
  %25 = load ptr, ptr %6, align 8, !tbaa !4
  %26 = getelementptr inbounds nuw %struct._PyGenObject, ptr %25, i32 0, i32 9
  %27 = load i8, ptr %26, align 1, !tbaa !16
  %28 = sext i8 %27 to i32
  %29 = icmp sge i32 %28, 1
  br i1 %29, label %30, label %31

30:                                               ; preds = %24
  store ptr @_Py_NoneStruct, ptr %3, align 8
  store i32 1, ptr %7, align 4
  br label %114

31:                                               ; preds = %24
  call void @llvm.lifetime.start.p0(i64 8, ptr %8) #7
  %32 = load ptr, ptr %6, align 8, !tbaa !4
  %33 = call ptr @_PyGen_yf(ptr noundef %32)
  store ptr %33, ptr %8, align 8, !tbaa !11
  call void @llvm.lifetime.start.p0(i64 4, ptr %9) #7
  store i32 0, ptr %9, align 4, !tbaa !14
  %34 = load ptr, ptr %8, align 8, !tbaa !11
  %35 = icmp ne ptr %34, null
  br i1 %35, label %36, label %50

36:                                               ; preds = %31
  call void @llvm.lifetime.start.p0(i64 4, ptr %10) #7
  %37 = load ptr, ptr %6, align 8, !tbaa !4
  %38 = getelementptr inbounds nuw %struct._PyGenObject, ptr %37, i32 0, i32 9
  %39 = load i8, ptr %38, align 1, !tbaa !16
  %40 = sext i8 %39 to i32
  store i32 %40, ptr %10, align 4, !tbaa !14
  %41 = load ptr, ptr %6, align 8, !tbaa !4
  %42 = getelementptr inbounds nuw %struct._PyGenObject, ptr %41, i32 0, i32 9
  store i8 0, ptr %42, align 1, !tbaa !16
  %43 = load ptr, ptr %8, align 8, !tbaa !11
  %44 = call i32 @gen_close_iter(ptr noundef %43)
  store i32 %44, ptr %9, align 4, !tbaa !14
  %45 = load i32, ptr %10, align 4, !tbaa !14
  %46 = trunc i32 %45 to i8
  %47 = load ptr, ptr %6, align 8, !tbaa !4
  %48 = getelementptr inbounds nuw %struct._PyGenObject, ptr %47, i32 0, i32 9
  store i8 %46, ptr %48, align 1, !tbaa !16
  %49 = load ptr, ptr %8, align 8, !tbaa !11
  call void @Py_DECREF(ptr noundef %49)
  call void @llvm.lifetime.end.p0(i64 4, ptr %10) #7
  br label %50

50:                                               ; preds = %36, %31
  call void @llvm.lifetime.start.p0(i64 8, ptr %11) #7
  %51 = load ptr, ptr %6, align 8, !tbaa !4
  %52 = getelementptr inbounds nuw %struct._PyGenObject, ptr %51, i32 0, i32 10
  store ptr %52, ptr %11, align 8, !tbaa !37
  %53 = load ptr, ptr %11, align 8, !tbaa !37
  %54 = getelementptr inbounds nuw %struct._PyInterpreterFrame, ptr %53, i32 0, i32 7
  %55 = load ptr, ptr %54, align 8, !tbaa !38
  %56 = call zeroext i1 @is_resume(ptr noundef %55)
  br i1 %56, label %57, label %75

57:                                               ; preds = %50
  call void @llvm.lifetime.start.p0(i64 4, ptr %12) #7
  %58 = load ptr, ptr %11, align 8, !tbaa !37
  %59 = getelementptr inbounds nuw %struct._PyInterpreterFrame, ptr %58, i32 0, i32 7
  %60 = load ptr, ptr %59, align 8, !tbaa !38
  %61 = getelementptr inbounds nuw %struct.anon.1, ptr %60, i32 0, i32 1
  %62 = load i8, ptr %61, align 1, !tbaa !13
  %63 = zext i8 %62 to i32
  store i32 %63, ptr %12, align 4, !tbaa !14
  %64 = load i32, ptr %12, align 4, !tbaa !14
  %65 = and i32 %64, 4
  %66 = icmp ne i32 %65, 0
  br i1 %66, label %67, label %71

67:                                               ; preds = %57
  %68 = load ptr, ptr %6, align 8, !tbaa !4
  %69 = getelementptr inbounds nuw %struct._PyGenObject, ptr %68, i32 0, i32 9
  store i8 1, ptr %69, align 1, !tbaa !16
  %70 = load ptr, ptr %6, align 8, !tbaa !4
  call void @gen_clear_frame(ptr noundef %70)
  store ptr @_Py_NoneStruct, ptr %3, align 8
  store i32 1, ptr %7, align 4
  br label %72

71:                                               ; preds = %57
  store i32 0, ptr %7, align 4
  br label %72

72:                                               ; preds = %71, %67
  call void @llvm.lifetime.end.p0(i64 4, ptr %12) #7
  %73 = load i32, ptr %7, align 4
  switch i32 %73, label %113 [
    i32 0, label %74
  ]

74:                                               ; preds = %72
  br label %75

75:                                               ; preds = %74, %50
  %76 = load i32, ptr %9, align 4, !tbaa !14
  %77 = icmp eq i32 %76, 0
  br i1 %77, label %78, label %80

78:                                               ; preds = %75
  %79 = load ptr, ptr @PyExc_GeneratorExit, align 8, !tbaa !11
  call void @PyErr_SetNone(ptr noundef %79)
  br label %80

80:                                               ; preds = %78, %75
  call void @llvm.lifetime.start.p0(i64 8, ptr %13) #7
  %81 = load ptr, ptr %6, align 8, !tbaa !4
  %82 = call ptr @gen_send_ex(ptr noundef %81, ptr noundef @_Py_NoneStruct, i32 noundef 1, i32 noundef 1)
  store ptr %82, ptr %13, align 8, !tbaa !11
  %83 = load ptr, ptr %13, align 8, !tbaa !11
  %84 = icmp ne ptr %83, null
  br i1 %84, label %85, label %101

85:                                               ; preds = %80
  call void @llvm.lifetime.start.p0(i64 8, ptr %14) #7
  store ptr @.str.13, ptr %14, align 8, !tbaa !39
  %86 = load ptr, ptr %6, align 8, !tbaa !4
  %87 = call i32 @Py_IS_TYPE(ptr noundef %86, ptr noundef @PyCoro_Type)
  %88 = icmp ne i32 %87, 0
  br i1 %88, label %89, label %90

89:                                               ; preds = %85
  store ptr @.str.14, ptr %14, align 8, !tbaa !39
  br label %97

90:                                               ; preds = %85
  %91 = load ptr, ptr %6, align 8, !tbaa !4
  %92 = call i32 @Py_IS_TYPE(ptr noundef %91, ptr noundef @PyAsyncGen_Type)
  %93 = icmp ne i32 %92, 0
  br i1 %93, label %94, label %96

94:                                               ; preds = %90
  %95 = load ptr, ptr @ASYNC_GEN_IGNORED_EXIT_MSG, align 8, !tbaa !39
  store ptr %95, ptr %14, align 8, !tbaa !39
  br label %96

96:                                               ; preds = %94, %90
  br label %97

97:                                               ; preds = %96, %89
  %98 = load ptr, ptr %13, align 8, !tbaa !11
  call void @Py_DECREF(ptr noundef %98)
  %99 = load ptr, ptr @PyExc_RuntimeError, align 8, !tbaa !11
  %100 = load ptr, ptr %14, align 8, !tbaa !39
  call void @PyErr_SetString(ptr noundef %99, ptr noundef %100)
  store ptr null, ptr %3, align 8
  store i32 1, ptr %7, align 4
  call void @llvm.lifetime.end.p0(i64 8, ptr %14) #7
  br label %112

101:                                              ; preds = %80
  %102 = load ptr, ptr @PyExc_GeneratorExit, align 8, !tbaa !11
  %103 = call i32 @PyErr_ExceptionMatches(ptr noundef %102)
  %104 = icmp ne i32 %103, 0
  br i1 %104, label %105, label %106

105:                                              ; preds = %101
  call void @PyErr_Clear()
  store ptr @_Py_NoneStruct, ptr %3, align 8
  store i32 1, ptr %7, align 4
  br label %112

106:                                              ; preds = %101
  %107 = call i32 @_PyGen_FetchStopIterationValue(ptr noundef %13)
  %108 = icmp eq i32 %107, 0
  br i1 %108, label %109, label %111

109:                                              ; preds = %106
  %110 = load ptr, ptr %13, align 8, !tbaa !11
  store ptr %110, ptr %3, align 8
  store i32 1, ptr %7, align 4
  br label %112

111:                                              ; preds = %106
  store ptr null, ptr %3, align 8
  store i32 1, ptr %7, align 4
  br label %112

112:                                              ; preds = %111, %109, %105, %97
  call void @llvm.lifetime.end.p0(i64 8, ptr %13) #7
  br label %113

113:                                              ; preds = %112, %72
  call void @llvm.lifetime.end.p0(i64 8, ptr %11) #7
  call void @llvm.lifetime.end.p0(i64 4, ptr %9) #7
  call void @llvm.lifetime.end.p0(i64 8, ptr %8) #7
  br label %114

114:                                              ; preds = %113, %30, %21
  call void @llvm.lifetime.end.p0(i64 8, ptr %6) #7
  %115 = load ptr, ptr %3, align 8
  ret ptr %115
}