; Function Attrs: nounwind uwtable
define internal ptr @gen_close(ptr noundef %0, ptr readnone captures(none) %1) #2 {
  %3 = alloca ptr, align 8
  %4 = getelementptr inbounds nuw i8, ptr %0, i64 67
  %5 = load i8, ptr %4, align 1, !tbaa !7
  %6 = icmp eq i8 %5, -3
  br i1 %6, label %7, label %8

7:                                                ; preds = %2
  store i8 1, ptr %4, align 1, !tbaa !7
  br label %gen_clear_frame.exit

8:                                                ; preds = %2
  %9 = icmp sgt i8 %5, 0
  br i1 %9, label %gen_clear_frame.exit, label %10

10:                                               ; preds = %8
  %11 = icmp eq i8 %5, -1
  br i1 %11, label %12, label %_PyGen_yf.exit

12:                                               ; preds = %10
  %13 = getelementptr i8, ptr %0, i64 136
  %.val.i = load ptr, ptr %13, align 8, !tbaa !29
  %14 = getelementptr i8, ptr %.val.i, i64 -8
  %.val.val.i = load i64, ptr %14, align 8, !tbaa !4
  %15 = inttoptr i64 %.val.val.i to ptr
  %16 = load i32, ptr %15, align 8, !tbaa !4
  %17 = icmp slt i32 %16, 0
  br i1 %17, label %20, label %18

18:                                               ; preds = %12
  %19 = add nuw i32 %16, 1
  store i32 %19, ptr %15, align 8, !tbaa !4
  %.pre = load i8, ptr %4, align 1, !tbaa !7
  br label %20

20:                                               ; preds = %12, %18
  %21 = phi i8 [ -1, %12 ], [ %.pre, %18 ]
  store i8 0, ptr %4, align 1, !tbaa !7
  %22 = tail call fastcc i32 @gen_close_iter(ptr noundef %15)
  store i8 %21, ptr %4, align 1, !tbaa !7
  %23 = load i32, ptr %15, align 8, !tbaa !4
  %.not.i35 = icmp sgt i32 %23, -1
  br i1 %.not.i35, label %24, label %Py_DECREF.exit36

24:                                               ; preds = %20
  %25 = add nsw i32 %23, -1
  store i32 %25, ptr %15, align 8, !tbaa !4
  %26 = icmp eq i32 %25, 0
  br i1 %26, label %27, label %Py_DECREF.exit36

27:                                               ; preds = %24
  tail call void @_Py_Dealloc(ptr noundef nonnull %15) #8
  br label %Py_DECREF.exit36

Py_DECREF.exit36:                                 ; preds = %20, %24, %27
  %28 = icmp eq i32 %22, 0
  br label %_PyGen_yf.exit

_PyGen_yf.exit:                                   ; preds = %10, %Py_DECREF.exit36
  %.026 = phi i1 [ %28, %Py_DECREF.exit36 ], [ true, %10 ]
  %29 = getelementptr inbounds nuw i8, ptr %0, i64 128
  %30 = load ptr, ptr %29, align 8, !tbaa !30
  %.val39 = load i8, ptr %30, align 2, !tbaa !4
  switch i8 %.val39, label %.critedge [
    i8 -40, label %31
    i8 -107, label %31
    i8 -10, label %31
  ]

31:                                               ; preds = %_PyGen_yf.exit, %_PyGen_yf.exit, %_PyGen_yf.exit
  %32 = getelementptr inbounds nuw i8, ptr %30, i64 1
  %33 = load i8, ptr %32, align 1, !tbaa !4
  %34 = and i8 %33, 4
  %.not29 = icmp eq i8 %34, 0
  br i1 %.not29, label %.critedge, label %35

35:                                               ; preds = %31
  store i8 4, ptr %4, align 1, !tbaa !7
  %36 = getelementptr inbounds nuw i8, ptr %0, i64 72
  %37 = getelementptr inbounds nuw i8, ptr %0, i64 80
  store ptr null, ptr %37, align 8, !tbaa !31
  tail call void @_PyFrame_ClearExceptCode(ptr noundef nonnull %36) #8
  %38 = getelementptr inbounds nuw i8, ptr %0, i64 40
  %39 = load ptr, ptr %38, align 8, !tbaa !32
  %.not.i.i = icmp eq ptr %39, null
  br i1 %.not.i.i, label %gen_clear_frame.exit, label %40

40:                                               ; preds = %35
  store ptr null, ptr %38, align 8, !tbaa !32
  %41 = load i32, ptr %39, align 8, !tbaa !4
  %.not.i.i.i = icmp sgt i32 %41, -1
  br i1 %.not.i.i.i, label %42, label %gen_clear_frame.exit

42:                                               ; preds = %40
  %43 = add nsw i32 %41, -1
  store i32 %43, ptr %39, align 8, !tbaa !4
  %44 = icmp eq i32 %43, 0
  br i1 %44, label %45, label %gen_clear_frame.exit

45:                                               ; preds = %42
  tail call void @_Py_Dealloc(ptr noundef nonnull %39) #8
  br label %gen_clear_frame.exit

.critedge:                                        ; preds = %_PyGen_yf.exit, %31
  br i1 %.026, label %46, label %48

46:                                               ; preds = %.critedge
  %47 = load ptr, ptr @PyExc_GeneratorExit, align 8, !tbaa !32
  tail call void @PyErr_SetNone(ptr noundef %47) #8
  br label %48

48:                                               ; preds = %46, %.critedge
  call void @llvm.lifetime.start.p0(i64 8, ptr nonnull %3) #8
  %49 = tail call fastcc ptr @gen_send_ex(ptr noundef nonnull %0, ptr noundef nonnull @_Py_NoneStruct, i32 noundef 1, i32 noundef 1)
  store ptr %49, ptr %3, align 8, !tbaa !32
  %.not30 = icmp eq ptr %49, null
  br i1 %.not30, label %58, label %50

50:                                               ; preds = %48
  %51 = getelementptr i8, ptr %0, i64 8
  %.val38 = load ptr, ptr %51, align 8, !tbaa !20
  %.not = icmp eq ptr %.val38, @PyCoro_Type
  %.not43 = icmp eq ptr %.val38, @PyAsyncGen_Type
  %spec.select = select i1 %.not43, ptr @.str.22, ptr @.str.13
  %.0 = select i1 %.not, ptr @.str.14, ptr %spec.select
  %52 = load i32, ptr %49, align 8, !tbaa !4
  %.not.i = icmp sgt i32 %52, -1
  br i1 %.not.i, label %53, label %Py_DECREF.exit

53:                                               ; preds = %50
  %54 = add nsw i32 %52, -1
  store i32 %54, ptr %49, align 8, !tbaa !4
  %55 = icmp eq i32 %54, 0
  br i1 %55, label %56, label %Py_DECREF.exit

56:                                               ; preds = %53
  tail call void @_Py_Dealloc(ptr noundef nonnull %49) #8
  br label %Py_DECREF.exit

Py_DECREF.exit:                                   ; preds = %50, %53, %56
  %57 = load ptr, ptr @PyExc_RuntimeError, align 8, !tbaa !32
  tail call void @PyErr_SetString(ptr noundef %57, ptr noundef nonnull %.0) #8
  br label %66

58:                                               ; preds = %48
  %59 = load ptr, ptr @PyExc_GeneratorExit, align 8, !tbaa !32
  %60 = tail call i32 @PyErr_ExceptionMatches(ptr noundef %59) #8
  %.not31 = icmp eq i32 %60, 0
  br i1 %.not31, label %62, label %61

61:                                               ; preds = %58
  tail call void @PyErr_Clear() #8
  br label %66

62:                                               ; preds = %58
  %63 = call i32 @_PyGen_FetchStopIterationValue(ptr noundef nonnull %3)
  %64 = icmp eq i32 %63, 0
  %65 = load ptr, ptr %3, align 8
  %spec.select34 = select i1 %64, ptr %65, ptr null
  br label %66

66:                                               ; preds = %62, %61, %Py_DECREF.exit
  %.3 = phi ptr [ null, %Py_DECREF.exit ], [ @_Py_NoneStruct, %61 ], [ %spec.select34, %62 ]
  call void @llvm.lifetime.end.p0(i64 8, ptr nonnull %3) #8
  br label %gen_clear_frame.exit

gen_clear_frame.exit:                             ; preds = %45, %42, %40, %35, %66, %8, %7
  %.024 = phi ptr [ @_Py_NoneStruct, %7 ], [ @_Py_NoneStruct, %8 ], [ %.3, %66 ], [ @_Py_NoneStruct, %35 ], [ @_Py_NoneStruct, %40 ], [ @_Py_NoneStruct, %42 ], [ @_Py_NoneStruct, %45 ]
  ret ptr %.024
}